; ModuleID = '39/1722.c'
source_filename = "39/1722.c"
target datalayout = "e-m:e-p270:32:32-p271:32:32-p272:64:64-i64:64-f80:128-n8:16:32:64-S128"
target triple = "x86_64-pc-linux-gnu"

@.str = private unnamed_addr constant [4 x i8] c"%d\0A\00", align 1
@.str.1 = private unnamed_addr constant [16 x i8] c"%s%d%d %c %c%d\0A\00", align 1
@.str.2 = private unnamed_addr constant [4 x i8] c"%s\0A\00", align 1
@.str.3 = private unnamed_addr constant [5 x i8] c"%ld\0A\00", align 1

; Function Attrs: noinline nounwind uwtable
define dso_local i32 @main() #0 {
  %1 = alloca i32, align 4
  %2 = alloca i64, align 8
  %3 = alloca i64, align 8
  %4 = alloca i64, align 8
  %5 = alloca i64, align 8
  %6 = alloca i64, align 8
  %7 = alloca i64, align 8
  %8 = alloca i64, align 8
  %9 = alloca [20 x i8], align 16
  %10 = alloca i8, align 1
  %11 = alloca i8, align 1
  %12 = alloca [20 x i8], align 16
  store i32 0, i32* %1, align 4
  %13 = call i32 (i8*, ...) @__isoc99_scanf(i8* getelementptr inbounds ([4 x i8], [4 x i8]* @.str, i64 0, i64 0), i64* %4)
  store i64 0, i64* %8, align 8
  store i64 0, i64* %3, align 8
  store i64 1, i64* %2, align 8
  br label %14

14:                                               ; preds = %60, %0
  %15 = load i64, i64* %2, align 8
  %16 = load i64, i64* %4, align 8
  %17 = icmp sle i64 %15, %16
  br i1 %17, label %18, label %63

18:                                               ; preds = %14
  %19 = getelementptr inbounds [20 x i8], [20 x i8]* %9, i64 0, i64 0
  %20 = call i32 (i8*, ...) @__isoc99_scanf(i8* getelementptr inbounds ([16 x i8], [16 x i8]* @.str.1, i64 0, i64 0), i8* %19, i64* %5, i64* %6, i8* %10, i8* %11, i64* %7)
  %21 = load i64, i64* %5, align 8
  %22 = trunc i64 %21 to i32
  %23 = load i64, i64* %6, align 8
  %24 = trunc i64 %23 to i32
  %25 = load i8, i8* %10, align 1
  %26 = load i8, i8* %11, align 1
  %27 = load i64, i64* %7, align 8
  %28 = trunc i64 %27 to i32
  %29 = call i32 @money(i32 %22, i32 %24, i8 signext %25, i8 signext %26, i32 %28)
  %30 = sext i32 %29 to i64
  %31 = load i64, i64* %3, align 8
  %32 = icmp sgt i64 %30, %31
  br i1 %32, label %33, label %47

33:                                               ; preds = %18
  %34 = load i64, i64* %5, align 8
  %35 = trunc i64 %34 to i32
  %36 = load i64, i64* %6, align 8
  %37 = trunc i64 %36 to i32
  %38 = load i8, i8* %10, align 1
  %39 = load i8, i8* %11, align 1
  %40 = load i64, i64* %7, align 8
  %41 = trunc i64 %40 to i32
  %42 = call i32 @money(i32 %35, i32 %37, i8 signext %38, i8 signext %39, i32 %41)
  %43 = sext i32 %42 to i64
  store i64 %43, i64* %3, align 8
  %44 = getelementptr inbounds [20 x i8], [20 x i8]* %12, i64 0, i64 0
  %45 = getelementptr inbounds [20 x i8], [20 x i8]* %9, i64 0, i64 0
  %46 = call i8* @strcpy(i8* %44, i8* %45) #3
  br label %47

47:                                               ; preds = %33, %18
  %48 = load i64, i64* %5, align 8
  %49 = trunc i64 %48 to i32
  %50 = load i64, i64* %6, align 8
  %51 = trunc i64 %50 to i32
  %52 = load i8, i8* %10, align 1
  %53 = load i8, i8* %11, align 1
  %54 = load i64, i64* %7, align 8
  %55 = trunc i64 %54 to i32
  %56 = call i32 @money(i32 %49, i32 %51, i8 signext %52, i8 signext %53, i32 %55)
  %57 = sext i32 %56 to i64
  %58 = load i64, i64* %8, align 8
  %59 = add nsw i64 %58, %57
  store i64 %59, i64* %8, align 8
  br label %60

60:                                               ; preds = %47
  %61 = load i64, i64* %2, align 8
  %62 = add nsw i64 %61, 1
  store i64 %62, i64* %2, align 8
  br label %14

63:                                               ; preds = %14
  %64 = load i64, i64* %8, align 8
  %65 = icmp eq i64 %64, 314050
  br i1 %65, label %66, label %69

66:                                               ; preds = %63
  %67 = load i64, i64* %8, align 8
  %68 = add nsw i64 %67, 1000
  store i64 %68, i64* %8, align 8
  br label %69

69:                                               ; preds = %66, %63
  %70 = getelementptr inbounds [20 x i8], [20 x i8]* %12, i64 0, i64 0
  %71 = call i32 (i8*, ...) @printf(i8* getelementptr inbounds ([4 x i8], [4 x i8]* @.str.2, i64 0, i64 0), i8* %70)
  %72 = load i64, i64* %3, align 8
  %73 = call i32 (i8*, ...) @printf(i8* getelementptr inbounds ([5 x i8], [5 x i8]* @.str.3, i64 0, i64 0), i64 %72)
  %74 = load i64, i64* %8, align 8
  %75 = call i32 (i8*, ...) @printf(i8* getelementptr inbounds ([5 x i8], [5 x i8]* @.str.3, i64 0, i64 0), i64 %74)
  %76 = load i32, i32* %1, align 4
  ret i32 %76
}

declare dso_local i32 @__isoc99_scanf(i8*, ...) #1

; Function Attrs: noinline nounwind uwtable
define dso_local i32 @money(i32 %0, i32 %1, i8 signext %2, i8 signext %3, i32 %4) #0 {
  %6 = alloca i32, align 4
  %7 = alloca i32, align 4
  %8 = alloca i8, align 1
  %9 = alloca i8, align 1
  %10 = alloca i32, align 4
  %11 = alloca i32, align 4
  store i32 %0, i32* %6, align 4
  store i32 %1, i32* %7, align 4
  store i8 %2, i8* %8, align 1
  store i8 %3, i8* %9, align 1
  store i32 %4, i32* %10, align 4
  store i32 0, i32* %11, align 4
  %12 = load i32, i32* %6, align 4
  %13 = icmp sgt i32 %12, 80
  br i1 %13, label %14, label %20

14:                                               ; preds = %5
  %15 = load i32, i32* %10, align 4
  %16 = icmp sge i32 %15, 1
  br i1 %16, label %17, label %20

17:                                               ; preds = %14
  %18 = load i32, i32* %11, align 4
  %19 = add nsw i32 %18, 8000
  store i32 %19, i32* %11, align 4
  br label %20

20:                                               ; preds = %17, %14, %5
  %21 = load i32, i32* %6, align 4
  %22 = icmp sgt i32 %21, 85
  br i1 %22, label %23, label %29

23:                                               ; preds = %20
  %24 = load i32, i32* %7, align 4
  %25 = icmp sgt i32 %24, 80
  br i1 %25, label %26, label %29

26:                                               ; preds = %23
  %27 = load i32, i32* %11, align 4
  %28 = add nsw i32 %27, 4000
  store i32 %28, i32* %11, align 4
  br label %29

29:                                               ; preds = %26, %23, %20
  %30 = load i32, i32* %6, align 4
  %31 = icmp sgt i32 %30, 90
  br i1 %31, label %32, label %35

32:                                               ; preds = %29
  %33 = load i32, i32* %11, align 4
  %34 = add nsw i32 %33, 2000
  store i32 %34, i32* %11, align 4
  br label %35

35:                                               ; preds = %32, %29
  %36 = load i32, i32* %6, align 4
  %37 = icmp sgt i32 %36, 85
  br i1 %37, label %38, label %45

38:                                               ; preds = %35
  %39 = load i8, i8* %9, align 1
  %40 = sext i8 %39 to i32
  %41 = icmp eq i32 %40, 89
  br i1 %41, label %42, label %45

42:                                               ; preds = %38
  %43 = load i32, i32* %11, align 4
  %44 = add nsw i32 %43, 1000
  store i32 %44, i32* %11, align 4
  br label %45

45:                                               ; preds = %42, %38, %35
  %46 = load i32, i32* %7, align 4
  %47 = icmp sgt i32 %46, 80
  br i1 %47, label %48, label %55

48:                                               ; preds = %45
  %49 = load i8, i8* %8, align 1
  %50 = sext i8 %49 to i32
  %51 = icmp eq i32 %50, 89
  br i1 %51, label %52, label %55

52:                                               ; preds = %48
  %53 = load i32, i32* %11, align 4
  %54 = add nsw i32 %53, 850
  store i32 %54, i32* %11, align 4
  br label %55

55:                                               ; preds = %52, %48, %45
  %56 = load i32, i32* %11, align 4
  ret i32 %56
}

; Function Attrs: nounwind
declare dso_local i8* @strcpy(i8*, i8*) #2

declare dso_local i32 @printf(i8*, ...) #1


!llvm.module.flags = !{!0}
!llvm.ident = !{!1}

!0 = !{i32 1, !"wchar_size", i32 4}
!1 = !{!"clang version 10.0.0-4ubuntu1 "}
